target datalayout = "e-m:e-p270:32:32-p271:32:32-p272:64:64-i64:64-i128:128-f80:128-n8:16:32:64-S128"
target triple = "x86_64-pc-linux-gnu"

%struct._priv_exr_context_t = type { i8, i8, i8, i8, i8, i8, i8, i8, %struct.exr_attr_string_t, %struct.exr_attr_string_t, ptr, ptr, ptr, ptr, ptr, ptr, ptr, ptr, i32, i32, i32, i32, i32, float, ptr, ptr, ptr, i64, ptr, ptr, i64, i32, i32, i32, i32, %struct._priv_exr_part_t, ptr, ptr, %struct.exr_attribute_list, %union.pthread_mutex_t, i8, i8, [2 x i8], i32 }
%struct.exr_attr_string_t = type { i32, i32, ptr }
%struct._priv_exr_part_t = type { i32, i32, %struct.exr_attribute_list, ptr, ptr, ptr, ptr, ptr, ptr, ptr, ptr, ptr, ptr, ptr, ptr, ptr, ptr, %struct.exr_attr_box2i_t, %struct.exr_attr_box2i_t, i32, i32, i32, float, i32, i32, ptr, ptr, ptr, ptr, i64, i16, i16, i32, i64, i64 }
%struct.exr_attr_box2i_t = type { %struct.exr_attr_v2i_t, %struct.exr_attr_v2i_t }
%struct.exr_attr_v2i_t = type { i32, i32 }
%struct.exr_attribute_list = type { i32, i32, ptr, ptr }
%union.pthread_mutex_t = type { %struct.__pthread_mutex_s }
%struct.__pthread_mutex_s = type { i32, i32, i32, i32, i32, i16, i16, %struct.__pthread_internal_list }
%struct.__pthread_internal_list = type { ptr, ptr }
%struct.exr_attribute_t = type { ptr, ptr, i8, i8, [2 x i8], i32, %union.anon }
%union.anon = type { double }

@.str = private unnamed_addr constant [29 x i8] c"Part index (%d) out of range\00", align 1
@.str.2 = private unnamed_addr constant [21 x i8] c"NULL output for '%s'\00", align 1
@.str.55 = private unnamed_addr constant [35 x i8] c"Invalid name for i attribute query\00", align 1
@.str.56 = private unnamed_addr constant [60 x i8] c"'%s' requested type 'i', but stored attributes is type '%s'\00", align 1

; Function Attrs: inlinehint nounwind uwtable
define internal void @internal_exr_unlock(ptr noundef %0) #2 {
  %2 = alloca ptr, align 8
  %3 = alloca ptr, align 8
  store ptr %0, ptr %2, align 8, !tbaa !3
  call void @llvm.lifetime.start.p0(i64 8, ptr %3) #8
  %4 = load ptr, ptr %2, align 8, !tbaa !3
  %5 = ptrtoint ptr %4 to i64
  %6 = inttoptr i64 %5 to ptr
  store ptr %6, ptr %3, align 8, !tbaa !3
  %7 = load ptr, ptr %3, align 8, !tbaa !3
  %8 = getelementptr inbounds nuw %struct._priv_exr_context_t, ptr %7, i32 0, i32 39
  %9 = call i32 @pthread_mutex_unlock(ptr noundef %8) #8
  call void @llvm.lifetime.end.p0(i64 8, ptr %3) #8
  ret void
}

; Function Attrs: inlinehint nounwind uwtable
define internal void @internal_exr_lock(ptr noundef %0) #2 {
  %2 = alloca ptr, align 8
  %3 = alloca ptr, align 8
  store ptr %0, ptr %2, align 8, !tbaa !3
  call void @llvm.lifetime.start.p0(i64 8, ptr %3) #8
  %4 = load ptr, ptr %2, align 8, !tbaa !3
  %5 = ptrtoint ptr %4 to i64
  %6 = inttoptr i64 %5 to ptr
  store ptr %6, ptr %3, align 8, !tbaa !3
  %7 = load ptr, ptr %3, align 8, !tbaa !3
  %8 = getelementptr inbounds nuw %struct._priv_exr_context_t, ptr %7, i32 0, i32 39
  %9 = call i32 @pthread_mutex_lock(ptr noundef %8) #8
  call void @llvm.lifetime.end.p0(i64 8, ptr %3) #8
  ret void
}

; Function Attrs: nounwind uwtable
define i32 @exr_attr_get_int(ptr noundef %0, i32 noundef %1, ptr noundef %2, ptr noundef %3) #0 {
  %5 = alloca i32, align 4
  %6 = alloca ptr, align 8
  %7 = alloca i32, align 4
  %8 = alloca ptr, align 8
  %9 = alloca ptr, align 8
  %10 = alloca ptr, align 8
  %11 = alloca i32, align 4
  %12 = alloca ptr, align 8
  %13 = alloca i32, align 4
  store ptr %0, ptr %6, align 8, !tbaa !3
  store i32 %1, ptr %7, align 4, !tbaa !8
  store ptr %2, ptr %8, align 8, !tbaa !36
  store ptr %3, ptr %9, align 8, !tbaa !10
  call void @llvm.lifetime.start.p0(i64 8, ptr %10) #8
  call void @llvm.lifetime.start.p0(i64 4, ptr %11) #8
  call void @llvm.lifetime.start.p0(i64 8, ptr %12) #8
  %14 = load ptr, ptr %6, align 8, !tbaa !3
  %15 = icmp ne ptr %14, null
  br i1 %15, label %17, label %16

16:                                               ; preds = %4
  store i32 2, ptr %5, align 4
  store i32 1, ptr %13, align 4
  br label %159

17:                                               ; preds = %4
  %18 = load ptr, ptr %6, align 8, !tbaa !3
  %19 = getelementptr inbounds nuw %struct._priv_exr_context_t, ptr %18, i32 0, i32 0
  %20 = load i8, ptr %19, align 8, !tbaa !12
  %21 = zext i8 %20 to i32
  %22 = icmp eq i32 %21, 1
  br i1 %22, label %23, label %25

23:                                               ; preds = %17
  %24 = load ptr, ptr %6, align 8, !tbaa !3
  call void @internal_exr_lock(ptr noundef %24)
  br label %25

25:                                               ; preds = %23, %17
  %26 = load i32, ptr %7, align 4, !tbaa !8
  %27 = icmp slt i32 %26, 0
  br i1 %27, label %34, label %28

28:                                               ; preds = %25
  %29 = load i32, ptr %7, align 4, !tbaa !8
  %30 = load ptr, ptr %6, align 8, !tbaa !3
  %31 = getelementptr inbounds nuw %struct._priv_exr_context_t, ptr %30, i32 0, i32 34
  %32 = load i32, ptr %31, align 4, !tbaa !26
  %33 = icmp sge i32 %29, %32
  br i1 %33, label %34, label %49

34:                                               ; preds = %28, %25
  %35 = load ptr, ptr %6, align 8, !tbaa !3
  %36 = getelementptr inbounds nuw %struct._priv_exr_context_t, ptr %35, i32 0, i32 0
  %37 = load i8, ptr %36, align 8, !tbaa !12
  %38 = zext i8 %37 to i32
  %39 = icmp eq i32 %38, 1
  br i1 %39, label %40, label %42

40:                                               ; preds = %34
  %41 = load ptr, ptr %6, align 8, !tbaa !3
  call void @internal_exr_unlock(ptr noundef %41)
  br label %42

42:                                               ; preds = %40, %34
  %43 = load ptr, ptr %6, align 8, !tbaa !3
  %44 = getelementptr inbounds nuw %struct._priv_exr_context_t, ptr %43, i32 0, i32 14
  %45 = load ptr, ptr %44, align 8, !tbaa !27
  %46 = load ptr, ptr %6, align 8, !tbaa !3
  %47 = load i32, ptr %7, align 4, !tbaa !8
  %48 = call i32 (ptr, i32, ptr, ...) %45(ptr noundef %46, i32 noundef 4, ptr noundef @.str, i32 noundef %47)
  store i32 %48, ptr %5, align 4
  store i32 1, ptr %13, align 4
  br label %159

49:                                               ; preds = %28
  %50 = load ptr, ptr %6, align 8, !tbaa !3
  %51 = getelementptr inbounds nuw %struct._priv_exr_context_t, ptr %50, i32 0, i32 37
  %52 = load ptr, ptr %51, align 8, !tbaa !28
  %53 = load i32, ptr %7, align 4, !tbaa !8
  %54 = sext i32 %53 to i64
  %55 = getelementptr inbounds ptr, ptr %52, i64 %54
  %56 = load ptr, ptr %55, align 8, !tbaa !29
  store ptr %56, ptr %12, align 8, !tbaa !29
  %57 = load ptr, ptr %8, align 8, !tbaa !36
  %58 = icmp ne ptr %57, null
  br i1 %58, label %59, label %65

59:                                               ; preds = %49
  %60 = load ptr, ptr %8, align 8, !tbaa !36
  %61 = getelementptr inbounds i8, ptr %60, i64 0
  %62 = load i8, ptr %61, align 1, !tbaa !42
  %63 = sext i8 %62 to i32
  %64 = icmp eq i32 %63, 0
  br i1 %64, label %65, label %80

65:                                               ; preds = %59, %49
  %66 = load ptr, ptr %6, align 8, !tbaa !3
  %67 = getelementptr inbounds nuw %struct._priv_exr_context_t, ptr %66, i32 0, i32 0
  %68 = load i8, ptr %67, align 8, !tbaa !12
  %69 = zext i8 %68 to i32
  %70 = icmp eq i32 %69, 1
  br i1 %70, label %71, label %73

71:                                               ; preds = %65
  %72 = load ptr, ptr %6, align 8, !tbaa !3
  call void @internal_exr_unlock(ptr noundef %72)
  br label %74

73:                                               ; preds = %65
  br label %74

74:                                               ; preds = %73, %71
  %75 = load ptr, ptr %6, align 8, !tbaa !3
  %76 = getelementptr inbounds nuw %struct._priv_exr_context_t, ptr %75, i32 0, i32 13
  %77 = load ptr, ptr %76, align 8, !tbaa !45
  %78 = load ptr, ptr %6, align 8, !tbaa !3
  %79 = call i32 %77(ptr noundef %78, i32 noundef 3, ptr noundef @.str.55)
  store i32 %79, ptr %5, align 4
  store i32 1, ptr %13, align 4
  br label %159

80:                                               ; preds = %59
  %81 = load ptr, ptr %6, align 8, !tbaa !3
  %82 = load ptr, ptr %12, align 8, !tbaa !29
  %83 = getelementptr inbounds nuw %struct._priv_exr_part_t, ptr %82, i32 0, i32 2
  %84 = ptrtoint ptr %83 to i64
  %85 = inttoptr i64 %84 to ptr
  %86 = load ptr, ptr %8, align 8, !tbaa !36
  %87 = call i32 @exr_attr_list_find_by_name(ptr noundef %81, ptr noundef %85, ptr noundef %86, ptr noundef %10)
  store i32 %87, ptr %11, align 4, !tbaa !8
  %88 = load i32, ptr %11, align 4, !tbaa !8
  %89 = icmp ne i32 %88, 0
  br i1 %89, label %90, label %101

90:                                               ; preds = %80
  %91 = load ptr, ptr %6, align 8, !tbaa !3
  %92 = getelementptr inbounds nuw %struct._priv_exr_context_t, ptr %91, i32 0, i32 0
  %93 = load i8, ptr %92, align 8, !tbaa !12
  %94 = zext i8 %93 to i32
  %95 = icmp eq i32 %94, 1
  br i1 %95, label %96, label %98

96:                                               ; preds = %90
  %97 = load ptr, ptr %6, align 8, !tbaa !3
  call void @internal_exr_unlock(ptr noundef %97)
  br label %99

98:                                               ; preds = %90
  br label %99

99:                                               ; preds = %98, %96
  %100 = load i32, ptr %11, align 4, !tbaa !8
  store i32 %100, ptr %5, align 4
  store i32 1, ptr %13, align 4
  br label %159

101:                                              ; preds = %80
  %102 = load ptr, ptr %10, align 8, !tbaa !35
  %103 = getelementptr inbounds nuw %struct.exr_attribute_t, ptr %102, i32 0, i32 5
  %104 = load i32, ptr %103, align 4, !tbaa !39
  %105 = icmp ne i32 %104, 10
  br i1 %105, label %106, label %125

106:                                              ; preds = %101
  %107 = load ptr, ptr %6, align 8, !tbaa !3
  %108 = getelementptr inbounds nuw %struct._priv_exr_context_t, ptr %107, i32 0, i32 0
  %109 = load i8, ptr %108, align 8, !tbaa !12
  %110 = zext i8 %109 to i32
  %111 = icmp eq i32 %110, 1
  br i1 %111, label %112, label %114

112:                                              ; preds = %106
  %113 = load ptr, ptr %6, align 8, !tbaa !3
  call void @internal_exr_unlock(ptr noundef %113)
  br label %115

114:                                              ; preds = %106
  br label %115

115:                                              ; preds = %114, %112
  %116 = load ptr, ptr %6, align 8, !tbaa !3
  %117 = getelementptr inbounds nuw %struct._priv_exr_context_t, ptr %116, i32 0, i32 14
  %118 = load ptr, ptr %117, align 8, !tbaa !27
  %119 = load ptr, ptr %6, align 8, !tbaa !3
  %120 = load ptr, ptr %8, align 8, !tbaa !36
  %121 = load ptr, ptr %10, align 8, !tbaa !35
  %122 = getelementptr inbounds nuw %struct.exr_attribute_t, ptr %121, i32 0, i32 1
  %123 = load ptr, ptr %122, align 8, !tbaa !41
  %124 = call i32 (ptr, i32, ptr, ...) %118(ptr noundef %119, i32 noundef 16, ptr noundef @.str.56, ptr noundef %120, ptr noundef %123)
  store i32 %124, ptr %5, align 4
  store i32 1, ptr %13, align 4
  br label %159

125:                                              ; preds = %101
  %126 = load ptr, ptr %9, align 8, !tbaa !10
  %127 = icmp ne ptr %126, null
  br i1 %127, label %144, label %128

128:                                              ; preds = %125
  %129 = load ptr, ptr %6, align 8, !tbaa !3
  %130 = getelementptr inbounds nuw %struct._priv_exr_context_t, ptr %129, i32 0, i32 0
  %131 = load i8, ptr %130, align 8, !tbaa !12
  %132 = zext i8 %131 to i32
  %133 = icmp eq i32 %132, 1
  br i1 %133, label %134, label %136

134:                                              ; preds = %128
  %135 = load ptr, ptr %6, align 8, !tbaa !3
  call void @internal_exr_unlock(ptr noundef %135)
  br label %137

136:                                              ; preds = %128
  br label %137

137:                                              ; preds = %136, %134
  %138 = load ptr, ptr %6, align 8, !tbaa !3
  %139 = getelementptr inbounds nuw %struct._priv_exr_context_t, ptr %138, i32 0, i32 14
  %140 = load ptr, ptr %139, align 8, !tbaa !27
  %141 = load ptr, ptr %6, align 8, !tbaa !3
  %142 = load ptr, ptr %8, align 8, !tbaa !36
  %143 = call i32 (ptr, i32, ptr, ...) %140(ptr noundef %141, i32 noundef 3, ptr noundef @.str.2, ptr noundef %142)
  store i32 %143, ptr %5, align 4
  store i32 1, ptr %13, align 4
  br label %159

144:                                              ; preds = %125
  %145 = load ptr, ptr %10, align 8, !tbaa !35
  %146 = getelementptr inbounds nuw %struct.exr_attribute_t, ptr %145, i32 0, i32 6
  %147 = load i32, ptr %146, align 8, !tbaa !42
  %148 = load ptr, ptr %9, align 8, !tbaa !10
  store i32 %147, ptr %148, align 4, !tbaa !8
  %149 = load ptr, ptr %6, align 8, !tbaa !3
  %150 = getelementptr inbounds nuw %struct._priv_exr_context_t, ptr %149, i32 0, i32 0
  %151 = load i8, ptr %150, align 8, !tbaa !12
  %152 = zext i8 %151 to i32
  %153 = icmp eq i32 %152, 1
  br i1 %153, label %154, label %156

154:                                              ; preds = %144
  %155 = load ptr, ptr %6, align 8, !tbaa !3
  call void @internal_exr_unlock(ptr noundef %155)
  br label %157

156:                                              ; preds = %144
  br label %157

157:                                              ; preds = %156, %154
  %158 = load i32, ptr %11, align 4, !tbaa !8
  store i32 %158, ptr %5, align 4
  store i32 1, ptr %13, align 4
  br label %159

159:                                              ; preds = %157, %137, %115, %99, %74, %42, %16
  call void @llvm.lifetime.end.p0(i64 8, ptr %12) #8
  call void @llvm.lifetime.end.p0(i64 4, ptr %11) #8
  call void @llvm.lifetime.end.p0(i64 8, ptr %10) #8
  %160 = load i32, ptr %5, align 4
  ret i32 %160
}